; Function Attrs: mustprogress nounwind uwtable
define hidden void @_ZN14ArchiveBuilder20verify_estimate_sizeEmPKc(ptr nocapture noundef nonnull align 8 dereferenceable(1080) %0, i64 noundef %1, ptr noundef %2) local_unnamed_addr #1 align 2 {
  %4 = getelementptr inbounds i8, ptr %0, i64 24
  %5 = load ptr, ptr %4, align 8
  %6 = getelementptr inbounds i8, ptr %0, i64 8
  %7 = load ptr, ptr %6, align 8
  %8 = getelementptr inbounds i8, ptr %7, i64 16
  %9 = load ptr, ptr %8, align 8
  %10 = getelementptr inbounds i8, ptr %0, i64 40
  %11 = load i64, ptr %10, align 8
  %12 = load volatile ptr, ptr getelementptr inbounds (i8, ptr @_ZN16LogTagSetMappingILN6LogTag4typeE14ELS1_0ELS1_0ELS1_0ELS1_0ELS1_0EE7_tagsetE, i64 64), align 8
  %.not = icmp eq ptr %12, null
  br i1 %.not, label %21, label %13

13:                                               ; preds = %3
  %14 = trunc i64 %1 to i32
  %15 = ptrtoint ptr %9 to i64
  %16 = ptrtoint ptr %5 to i64
  %17 = sub i64 %15, %16
  %18 = add i64 %17, %11
  %19 = trunc i64 %18 to i32
  %20 = sub nsw i32 %14, %19
  tail call void (ptr, ...) @_ZN7LogImplILN6LogTag4typeE14ELS1_0ELS1_0ELS1_0ELS1_0ELS1_0EE5writeILN8LogLevel4typeE3EEEvPKcz(ptr noundef nonnull @.str.19, ptr noundef %2, i64 noundef %1, i64 noundef %18, i32 noundef %20)
  br label %21

21:                                               ; preds = %3, %13
  store ptr %9, ptr %4, align 8
  store i64 0, ptr %10, align 8
  ret void
}